target datalayout = "e-m:e-p270:32:32-p271:32:32-p272:64:64-i64:64-i128:128-f80:128-n8:16:32:64-S128"
target triple = "x86_64-pc-linux-gnu"

@H5EA_init_g = external global i8, align 1
@H5_libterm_g = external global i8, align 1
@.str.5 = private unnamed_addr constant [103 x i8] c"generated/home/dtcxzyw/WorkSpace/Projects/compilers/llvm-opt-benchmark/bench/hdf5/hdf5/src/H5EAcache.c\00", align 1
@H5E_EARRAY_g = external global i64, align 8
@H5E_CANTDECODE_g = external global i64, align 8
@.str.6 = private unnamed_addr constant [20 x i8] c"can't get checksums\00", align 1
@__func__.H5EA__cache_dblk_page_verify_chksum = private unnamed_addr constant [36 x i8] c"H5EA__cache_dblk_page_verify_chksum\00", align 1

; Function Attrs: nounwind uwtable
define internal i32 @H5EA__cache_dblk_page_verify_chksum(ptr noundef %0, i64 noundef %1, ptr noundef %2) #0 {
  %4 = alloca ptr, align 8
  %5 = alloca i64, align 8
  %6 = alloca ptr, align 8
  %7 = alloca ptr, align 8
  %8 = alloca i32, align 4
  %9 = alloca i32, align 4
  %10 = alloca i32, align 4
  %11 = alloca i8, align 1
  store ptr %0, ptr %4, align 8, !tbaa !3
  store i64 %1, ptr %5, align 8, !tbaa !19
  store ptr %2, ptr %6, align 8, !tbaa !3
  call void @llvm.lifetime.start.p0(i64 8, ptr %7) #8
  %12 = load ptr, ptr %4, align 8, !tbaa !3
  store ptr %12, ptr %7, align 8, !tbaa !20
  call void @llvm.lifetime.start.p0(i64 4, ptr %8) #8
  call void @llvm.lifetime.start.p0(i64 4, ptr %9) #8
  call void @llvm.lifetime.start.p0(i64 4, ptr %10) #8
  store i32 1, ptr %10, align 4, !tbaa !22
  call void @llvm.lifetime.start.p0(i64 1, ptr %11) #8
  store i8 0, ptr %11, align 1, !tbaa !11
  %13 = load i8, ptr @H5EA_init_g, align 1, !tbaa !11, !range !13, !noundef !14
  %14 = trunc i8 %13 to i1
  br i1 %14, label %19, label %15

15:                                               ; preds = %3
  %16 = load i8, ptr @H5_libterm_g, align 1, !tbaa !11, !range !13, !noundef !14
  %17 = trunc i8 %16 to i1
  %18 = xor i1 %17, true
  br label %19

19:                                               ; preds = %15, %3
  %20 = phi i1 [ true, %3 ], [ %18, %15 ]
  %21 = xor i1 %20, true
  %22 = xor i1 %21, true
  %23 = zext i1 %22 to i32
  %24 = sext i32 %23 to i64
  %25 = call i64 @llvm.expect.i64(i64 %24, i64 1)
  %26 = icmp ne i64 %25, 0
  br i1 %26, label %27, label %58

27:                                               ; preds = %19
  %28 = load ptr, ptr %7, align 8, !tbaa !20
  %29 = load i64, ptr %5, align 8, !tbaa !19
  %30 = call i32 @H5F_get_checksums(ptr noundef %28, i64 noundef %29, ptr noundef %8, ptr noundef %9)
  %31 = icmp slt i32 %30, 0
  br i1 %31, label %32, label %51

32:                                               ; preds = %27
  br label %33

33:                                               ; preds = %32
  br label %34

34:                                               ; preds = %33
  br label %35

35:                                               ; preds = %34
  %36 = load i64, ptr @H5E_EARRAY_g, align 8, !tbaa !19
  %37 = load i64, ptr @H5E_CANTDECODE_g, align 8, !tbaa !19
  %38 = call i32 (ptr, ptr, i32, i64, i64, ptr, ...) @H5E_printf_stack(ptr noundef @.str.5, ptr noundef @__func__.H5EA__cache_dblk_page_verify_chksum, i32 noundef 1884, i64 noundef %36, i64 noundef %37, ptr noundef @.str.6)
  br label %39

39:                                               ; preds = %35
  br label %40

40:                                               ; preds = %39
  store i8 1, ptr %11, align 1, !tbaa !11
  %41 = load i8, ptr %11, align 1, !tbaa !11, !range !13, !noundef !14
  %42 = trunc i8 %41 to i1
  %43 = zext i1 %42 to i8
  store i8 %43, ptr %11, align 1, !tbaa !11
  br label %44

44:                                               ; preds = %40
  br label %45

45:                                               ; preds = %44
  br label %46

46:                                               ; preds = %45
  store i32 -1, ptr %10, align 4, !tbaa !22
  br label %57

47:                                               ; No predecessors!
  br label %48

48:                                               ; preds = %47
  br label %49

49:                                               ; preds = %48
  br label %50

50:                                               ; preds = %49
  br label %51

51:                                               ; preds = %50, %27
  %52 = load i32, ptr %8, align 4, !tbaa !22
  %53 = load i32, ptr %9, align 4, !tbaa !22
  %54 = icmp ne i32 %52, %53
  br i1 %54, label %55, label %56

55:                                               ; preds = %51
  store i32 0, ptr %10, align 4, !tbaa !22
  br label %56

56:                                               ; preds = %55, %51
  br label %57

57:                                               ; preds = %56, %46
  br label %58

58:                                               ; preds = %57, %19
  %59 = load i32, ptr %10, align 4, !tbaa !22
  call void @llvm.lifetime.end.p0(i64 1, ptr %11) #8
  call void @llvm.lifetime.end.p0(i64 4, ptr %10) #8
  call void @llvm.lifetime.end.p0(i64 4, ptr %9) #8
  call void @llvm.lifetime.end.p0(i64 4, ptr %8) #8
  call void @llvm.lifetime.end.p0(i64 8, ptr %7) #8
  ret i32 %59
}